target datalayout = "e-m:e-p270:32:32-p271:32:32-p272:64:64-i64:64-i128:128-f80:128-n8:16:32:64-S128"
target triple = "x86_64-unknown-linux-gnu"

%class.btCollisionWorld = type <{ ptr, %class.btAlignedObjectArray, ptr, %struct.btDispatcherInfo, ptr, ptr, i8, [7 x i8] }>
%class.btAlignedObjectArray = type <{ %class.btAlignedAllocator, [3 x i8], i32, i32, [4 x i8], ptr, i8, [7 x i8] }>
%class.btAlignedAllocator = type { i8 }
%struct.btDispatcherInfo = type <{ float, i32, i32, float, i8, [7 x i8], ptr, i8, i8, i8, i8, float, i8, [3 x i8], float, i8, [7 x i8] }>
%class.btCollisionObject = type <{ ptr, %class.btTransform, %class.btTransform, %class.btVector3, %class.btVector3, %class.btVector3, i32, float, ptr, ptr, ptr, ptr, i32, i32, i32, i32, i32, float, float, float, float, float, float, float, i32, [4 x i8], ptr, i32, i32, i32, float, float, float, i32, [4 x i8], %class.btAlignedObjectArray.0, i32, %class.btVector3, [4 x i8] }>
%class.btTransform = type { %class.btMatrix3x3, %class.btVector3 }
%class.btMatrix3x3 = type { [3 x %class.btVector3] }
%class.btAlignedObjectArray.0 = type <{ %class.btAlignedAllocator.1, [3 x i8], i32, i32, [4 x i8], ptr, i8, [7 x i8] }>
%class.btAlignedAllocator.1 = type { i8 }
%class.btVector3 = type { [4 x float] }
%struct.btBroadphaseAabbCallback = type { ptr }
%struct.btSingleContactCallback = type { %struct.btBroadphaseAabbCallback, ptr, ptr, ptr }

@_ZTV24btBroadphaseAabbCallback = linkonce_odr dso_local unnamed_addr constant { [5 x ptr] } { [5 x ptr] [ptr null, ptr @_ZTI24btBroadphaseAabbCallback, ptr @_ZN24btBroadphaseAabbCallbackD2Ev, ptr @_ZN24btBroadphaseAabbCallbackD0Ev, ptr @__cxa_pure_virtual] }, comdat, align 8

; Function Attrs: mustprogress nounwind uwtable
define linkonce_odr dso_local void @_ZN24btBroadphaseAabbCallbackD2Ev(ptr noundef nonnull align 8 dereferenceable(8) %this) unnamed_addr #1 comdat align 2 {
entry:
  %this.addr = alloca ptr, align 8
  store ptr %this, ptr %this.addr, align 8
  ret void
}

; Function Attrs: mustprogress nounwind uwtable
define linkonce_odr dso_local void @_ZN24btBroadphaseAabbCallbackC2Ev(ptr noundef nonnull align 8 dereferenceable(8) %this) unnamed_addr #1 comdat align 2 {
entry:
  %this.addr = alloca ptr, align 8
  store ptr %this, ptr %this.addr, align 8
  %this1 = load ptr, ptr %this.addr, align 8
  store ptr getelementptr inbounds ({ [5 x ptr] }, ptr @_ZTV24btBroadphaseAabbCallback, i32 0, i32 0, i32 2), ptr %this1, align 8
  ret void
}

; Function Attrs: mustprogress nounwind uwtable
define linkonce_odr dso_local void @_ZN23btSingleContactCallbackD2Ev(ptr noundef nonnull align 8 dereferenceable(32) %this) unnamed_addr #1 comdat align 2 {
entry:
  %this.addr = alloca ptr, align 8
  store ptr %this, ptr %this.addr, align 8
  %this1 = load ptr, ptr %this.addr, align 8
  call void @_ZN24btBroadphaseAabbCallbackD2Ev(ptr noundef nonnull align 8 dereferenceable(8) %this1) #12
  ret void
}

; Function Attrs: mustprogress nounwind uwtable
define linkonce_odr dso_local void @_ZN23btSingleContactCallbackC2EP17btCollisionObjectP16btCollisionWorldRNS2_21ContactResultCallbackE(ptr noundef nonnull align 8 dereferenceable(32) %this, ptr noundef %collisionObject, ptr noundef %world, ptr noundef nonnull align 8 dereferenceable(20) %resultCallback) unnamed_addr #1 comdat align 2 {
entry:
  %this.addr = alloca ptr, align 8
  %collisionObject.addr = alloca ptr, align 8
  %world.addr = alloca ptr, align 8
  %resultCallback.addr = alloca ptr, align 8
  store ptr %this, ptr %this.addr, align 8
  store ptr %collisionObject, ptr %collisionObject.addr, align 8
  store ptr %world, ptr %world.addr, align 8
  store ptr %resultCallback, ptr %resultCallback.addr, align 8
  %this1 = load ptr, ptr %this.addr, align 8
  call void @_ZN24btBroadphaseAabbCallbackC2Ev(ptr noundef nonnull align 8 dereferenceable(8) %this1) #12
  store ptr getelementptr inbounds ({ [5 x ptr] }, ptr @_ZTV23btSingleContactCallback, i32 0, i32 0, i32 2), ptr %this1, align 8
  %m_collisionObject = getelementptr inbounds %struct.btSingleContactCallback, ptr %this1, i32 0, i32 1
  %0 = load ptr, ptr %collisionObject.addr, align 8
  store ptr %0, ptr %m_collisionObject, align 8
  %m_world = getelementptr inbounds %struct.btSingleContactCallback, ptr %this1, i32 0, i32 2
  %1 = load ptr, ptr %world.addr, align 8
  store ptr %1, ptr %m_world, align 8
  %m_resultCallback = getelementptr inbounds %struct.btSingleContactCallback, ptr %this1, i32 0, i32 3
  %2 = load ptr, ptr %resultCallback.addr, align 8
  store ptr %2, ptr %m_resultCallback, align 8
  ret void
}

; Function Attrs: mustprogress nounwind uwtable
define linkonce_odr dso_local noundef nonnull align 4 dereferenceable(64) ptr @_ZN17btCollisionObject17getWorldTransformEv(ptr noundef nonnull align 8 dereferenceable(372) %this) #1 comdat align 2 {
entry:
  %this.addr = alloca ptr, align 8
  store ptr %this, ptr %this.addr, align 8
  %this1 = load ptr, ptr %this.addr, align 8
  %m_worldTransform = getelementptr inbounds %class.btCollisionObject, ptr %this1, i32 0, i32 1
  ret ptr %m_worldTransform
}

; Function Attrs: mustprogress nounwind uwtable
define linkonce_odr dso_local noundef ptr @_ZN17btCollisionObject17getCollisionShapeEv(ptr noundef nonnull align 8 dereferenceable(372) %this) #1 comdat align 2 {
entry:
  %this.addr = alloca ptr, align 8
  store ptr %this, ptr %this.addr, align 8
  %this1 = load ptr, ptr %this.addr, align 8
  %m_collisionShape = getelementptr inbounds %class.btCollisionObject, ptr %this1, i32 0, i32 9
  %0 = load ptr, ptr %m_collisionShape, align 8
  ret ptr %0
}

; Function Attrs: mustprogress nounwind uwtable
define linkonce_odr dso_local void @_ZN9btVector3C2Ev(ptr noundef nonnull align 4 dereferenceable(16) %this) unnamed_addr #1 comdat align 2 {
entry:
  %this.addr = alloca ptr, align 8
  store ptr %this, ptr %this.addr, align 8
  ret void
}

; Function Attrs: mustprogress uwtable
define dso_local void @_ZN16btCollisionWorld11contactTestEP17btCollisionObjectRNS_21ContactResultCallbackE(ptr noundef nonnull align 8 dereferenceable(121) %this, ptr noundef %colObj, ptr noundef nonnull align 8 dereferenceable(20) %resultCallback) #2 align 2 personality ptr @__gxx_personality_v0 {
entry:
  %this.addr = alloca ptr, align 8
  %colObj.addr = alloca ptr, align 8
  %resultCallback.addr = alloca ptr, align 8
  %aabbMin = alloca %class.btVector3, align 4
  %aabbMax = alloca %class.btVector3, align 4
  %contactCB = alloca %struct.btSingleContactCallback, align 8
  %exn.slot = alloca ptr, align 8
  %ehselector.slot = alloca i32, align 4
  store ptr %this, ptr %this.addr, align 8
  store ptr %colObj, ptr %colObj.addr, align 8
  store ptr %resultCallback, ptr %resultCallback.addr, align 8
  %this1 = load ptr, ptr %this.addr, align 8
  call void @_ZN9btVector3C2Ev(ptr noundef nonnull align 4 dereferenceable(16) %aabbMin)
  call void @_ZN9btVector3C2Ev(ptr noundef nonnull align 4 dereferenceable(16) %aabbMax)
  %0 = load ptr, ptr %colObj.addr, align 8
  %call = call noundef ptr @_ZN17btCollisionObject17getCollisionShapeEv(ptr noundef nonnull align 8 dereferenceable(372) %0)
  %1 = load ptr, ptr %colObj.addr, align 8
  %call2 = call noundef nonnull align 4 dereferenceable(64) ptr @_ZN17btCollisionObject17getWorldTransformEv(ptr noundef nonnull align 8 dereferenceable(372) %1)
  %vtable = load ptr, ptr %call, align 8
  %vfn = getelementptr inbounds ptr, ptr %vtable, i64 2
  %2 = load ptr, ptr %vfn, align 8
  call void %2(ptr noundef nonnull align 8 dereferenceable(32) %call, ptr noundef nonnull align 4 dereferenceable(64) %call2, ptr noundef nonnull align 4 dereferenceable(16) %aabbMin, ptr noundef nonnull align 4 dereferenceable(16) %aabbMax)
  %3 = load ptr, ptr %colObj.addr, align 8
  %4 = load ptr, ptr %resultCallback.addr, align 8
  call void @_ZN23btSingleContactCallbackC2EP17btCollisionObjectP16btCollisionWorldRNS2_21ContactResultCallbackE(ptr noundef nonnull align 8 dereferenceable(32) %contactCB, ptr noundef %3, ptr noundef %this1, ptr noundef nonnull align 8 dereferenceable(20) %4)
  %m_broadphasePairCache = getelementptr inbounds %class.btCollisionWorld, ptr %this1, i32 0, i32 4
  %5 = load ptr, ptr %m_broadphasePairCache, align 8
  %vtable3 = load ptr, ptr %5, align 8
  %vfn4 = getelementptr inbounds ptr, ptr %vtable3, i64 7
  %6 = load ptr, ptr %vfn4, align 8
  invoke void %6(ptr noundef nonnull align 8 dereferenceable(8) %5, ptr noundef nonnull align 4 dereferenceable(16) %aabbMin, ptr noundef nonnull align 4 dereferenceable(16) %aabbMax, ptr noundef nonnull align 8 dereferenceable(8) %contactCB)
          to label %invoke.cont unwind label %lpad

invoke.cont:                                      ; preds = %entry
  call void @_ZN23btSingleContactCallbackD2Ev(ptr noundef nonnull align 8 dereferenceable(32) %contactCB) #12
  ret void

lpad:                                             ; preds = %entry
  %7 = landingpad { ptr, i32 }
          cleanup
  %8 = extractvalue { ptr, i32 } %7, 0
  store ptr %8, ptr %exn.slot, align 8
  %9 = extractvalue { ptr, i32 } %7, 1
  store i32 %9, ptr %ehselector.slot, align 4
  call void @_ZN23btSingleContactCallbackD2Ev(ptr noundef nonnull align 8 dereferenceable(32) %contactCB) #12
  br label %eh.resume

eh.resume:                                        ; preds = %lpad
  %exn = load ptr, ptr %exn.slot, align 8
  %sel = load i32, ptr %ehselector.slot, align 4
  %lpad.val = insertvalue { ptr, i32 } poison, ptr %exn, 0
  %lpad.val5 = insertvalue { ptr, i32 } %lpad.val, i32 %sel, 1
  resume { ptr, i32 } %lpad.val5
}