; Function Attrs: mustprogress uwtable
define dso_local void @_ZN16btCollisionWorld11contactTestEP17btCollisionObjectRNS_21ContactResultCallbackE(ptr noundef nonnull align 8 dereferenceable(121) %this, ptr noundef %colObj, ptr noundef nonnull align 8 dereferenceable(20) %resultCallback) local_unnamed_addr #4 align 2 personality ptr @__gxx_personality_v0 {
entry:
  %aabbMin = alloca %class.btVector3, align 4
  %aabbMax = alloca %class.btVector3, align 4
  %contactCB = alloca %struct.btSingleContactCallback, align 8
  %m_collisionShape.i = getelementptr inbounds i8, ptr %colObj, i64 200
  %0 = load ptr, ptr %m_collisionShape.i, align 8
  %m_worldTransform.i = getelementptr inbounds i8, ptr %colObj, i64 8
  %vtable = load ptr, ptr %0, align 8
  %vfn = getelementptr inbounds i8, ptr %vtable, i64 16
  %1 = load ptr, ptr %vfn, align 8
  call void %1(ptr noundef nonnull align 8 dereferenceable(32) %0, ptr noundef nonnull align 4 dereferenceable(64) %m_worldTransform.i, ptr noundef nonnull align 4 dereferenceable(16) %aabbMin, ptr noundef nonnull align 4 dereferenceable(16) %aabbMax)
  store ptr getelementptr inbounds ({ [5 x ptr] }, ptr @_ZTV23btSingleContactCallback, i64 0, i32 0, i64 2), ptr %contactCB, align 8
  %m_collisionObject.i = getelementptr inbounds i8, ptr %contactCB, i64 8
  store ptr %colObj, ptr %m_collisionObject.i, align 8
  %m_world.i = getelementptr inbounds i8, ptr %contactCB, i64 16
  store ptr %this, ptr %m_world.i, align 8
  %m_resultCallback.i = getelementptr inbounds i8, ptr %contactCB, i64 24
  store ptr %resultCallback, ptr %m_resultCallback.i, align 8
  %m_broadphasePairCache = getelementptr inbounds i8, ptr %this, i64 104
  %2 = load ptr, ptr %m_broadphasePairCache, align 8
  %vtable3 = load ptr, ptr %2, align 8
  %vfn4 = getelementptr inbounds i8, ptr %vtable3, i64 56
  %3 = load ptr, ptr %vfn4, align 8
  call void %3(ptr noundef nonnull align 8 dereferenceable(8) %2, ptr noundef nonnull align 4 dereferenceable(16) %aabbMin, ptr noundef nonnull align 4 dereferenceable(16) %aabbMax, ptr noundef nonnull align 8 dereferenceable(8) %contactCB)
  ret void
}